target datalayout = "e-m:e-p270:32:32-p271:32:32-p272:64:64-i64:64-i128:128-f80:128-n8:16:32:64-S128"
target triple = "x86_64-pc-linux-gnu"

%class.QString = type { %struct.QArrayDataPointer }
%struct.QArrayDataPointer = type { ptr, ptr, i64 }
%class.ConversationDialog = type <{ %class.TrafficTableDialog, ptr, ptr, ptr, i8, [7 x i8] }>
%class.TrafficTableDialog = type { %class.WiresharkDialog.base, ptr, ptr }
%class.WiresharkDialog.base = type <{ %class.GeometryStateDialog, ptr, i8, [7 x i8], %class.QString, %class.QList, i32, i8 }>
%class.GeometryStateDialog = type { %class.QDialog, %class.QString, ptr }
%class.QDialog = type { %class.QWidget }
%class.QWidget = type { %class.QObject, %class.QPaintDevice.base, ptr }
%class.QObject = type { ptr, %class.QScopedPointer }
%class.QScopedPointer = type { ptr }
%class.QPaintDevice.base = type <{ ptr, i16 }>
%class.QList = type { %struct.QArrayDataPointer.0 }
%struct.QArrayDataPointer.0 = type { ptr, ptr, i64 }

; Function Attrs: mustprogress null_pointer_is_valid sspstrong uwtable
define void @_ZN18ConversationDialog20displayFilterSuccessEb(ptr noundef align 8 dereferenceable_or_null(185) %0, i1 noundef zeroext %1) #4 align 2 {
  %3 = alloca ptr, align 8
  %4 = alloca i8, align 1
  store ptr %0, ptr %3, align 8
  %5 = zext i1 %1 to i8
  store i8 %5, ptr %4, align 1
  %6 = load ptr, ptr %3, align 8
  %7 = getelementptr inbounds nuw %class.ConversationDialog, ptr %6, i32 0, i32 4
  %8 = load i8, ptr %7, align 8, !range !6, !noundef !7
  %9 = trunc i8 %8 to i1
  br i1 %9, label %10, label %16

10:                                               ; preds = %2
  %11 = load i8, ptr %4, align 1, !range !6, !noundef !7
  %12 = trunc i8 %11 to i1
  br i1 %12, label %13, label %14

13:                                               ; preds = %10
  call void @_ZN18TrafficTableDialog18openTcpStreamGraphEi(ptr noundef align 8 dereferenceable_or_null(160) %6, i32 noundef 1)
  br label %14

14:                                               ; preds = %13, %10
  %15 = getelementptr inbounds nuw %class.ConversationDialog, ptr %6, i32 0, i32 4
  store i8 0, ptr %15, align 8
  br label %16

16:                                               ; preds = %14, %2
  ret void
}