; Function Attrs: mustprogress null_pointer_is_valid sspstrong uwtable
define void @_ZN18ConversationDialog20displayFilterSuccessEb(ptr noundef align 8 dereferenceable_or_null(185) %0, i1 noundef zeroext %1) #2 align 2 {
  %3 = getelementptr inbounds nuw i8, ptr %0, i64 184
  %4 = load i8, ptr %3, align 8, !range !24, !noundef !25
  %5 = trunc nuw i8 %4 to i1
  br i1 %5, label %6, label %9

6:                                                ; preds = %2
  br i1 %1, label %7, label %8

7:                                                ; preds = %6
  tail call void @_ZN18TrafficTableDialog18openTcpStreamGraphEi(ptr noundef align 8 dereferenceable_or_null(160) %0, i32 noundef 1)
  br label %8

8:                                                ; preds = %7, %6
  store i8 0, ptr %3, align 8
  br label %9

9:                                                ; preds = %8, %2
  ret void
}